target datalayout = "e-m:e-p270:32:32-p271:32:32-p272:64:64-i64:64-i128:128-f80:128-n8:16:32:64-S128"
target triple = "x86_64-pc-linux-gnu"

; Function Attrs: mustprogress nounwind uwtable
define noundef zeroext i1 @_Z9IsPathDivi(i32 noundef %0) #2 {
  %2 = alloca i32, align 4
  store i32 %0, ptr %2, align 4
  %3 = load i32, ptr %2, align 4
  %4 = icmp eq i32 %3, 47
  ret i1 %4
}

; Function Attrs: mustprogress nounwind uwtable
define void @_Z11AddEndSlashPwm(ptr noundef %0, i64 noundef %1) #2 {
  %3 = alloca ptr, align 8
  %4 = alloca i64, align 8
  %5 = alloca i64, align 8
  store ptr %0, ptr %3, align 8
  store i64 %1, ptr %4, align 8
  %6 = load ptr, ptr %3, align 8
  %7 = call i64 @wcslen(ptr noundef %6) #6
  store i64 %7, ptr %5, align 8
  %8 = load i64, ptr %5, align 8
  %9 = icmp ugt i64 %8, 0
  br i1 %9, label %10, label %30

10:                                               ; preds = %2
  %11 = load ptr, ptr %3, align 8
  %12 = load i64, ptr %5, align 8
  %13 = sub i64 %12, 1
  %14 = getelementptr inbounds i32, ptr %11, i64 %13
  %15 = load i32, ptr %14, align 4
  %16 = icmp ne i32 %15, 47
  br i1 %16, label %17, label %30

17:                                               ; preds = %10
  %18 = load i64, ptr %5, align 8
  %19 = add i64 %18, 1
  %20 = load i64, ptr %4, align 8
  %21 = icmp ult i64 %19, %20
  br i1 %21, label %22, label %30

22:                                               ; preds = %17
  %23 = load ptr, ptr %3, align 8
  %24 = load i64, ptr %5, align 8
  %25 = getelementptr inbounds i32, ptr %23, i64 %24
  store i32 47, ptr %25, align 4
  %26 = load ptr, ptr %3, align 8
  %27 = load i64, ptr %5, align 8
  %28 = add i64 %27, 1
  %29 = getelementptr inbounds i32, ptr %26, i64 %28
  store i32 0, ptr %29, align 4
  br label %30

30:                                               ; preds = %22, %17, %10, %2
  ret void
}

; Function Attrs: mustprogress nounwind uwtable
define noundef zeroext i1 @_Z10IsFullPathPKw(ptr noundef %0) #2 {
  %2 = alloca ptr, align 8
  store ptr %0, ptr %2, align 8
  %3 = load ptr, ptr %2, align 8
  %4 = getelementptr inbounds i32, ptr %3, i64 0
  %5 = load i32, ptr %4, align 4
  %6 = call noundef zeroext i1 @_Z9IsPathDivi(i32 noundef %5)
  ret i1 %6
}

; Function Attrs: mustprogress uwtable
define void @_Z17ConvertNameToFullPKwPwm(ptr noundef %0, ptr noundef %1, i64 noundef %2) #0 {
  %4 = alloca ptr, align 8
  %5 = alloca ptr, align 8
  %6 = alloca i64, align 8
  %7 = alloca [2048 x i8], align 16
  store ptr %0, ptr %4, align 8
  store ptr %1, ptr %5, align 8
  store i64 %2, ptr %6, align 8
  %8 = load ptr, ptr %4, align 8
  %9 = icmp eq ptr %8, null
  br i1 %9, label %14, label %10

10:                                               ; preds = %3
  %11 = load ptr, ptr %4, align 8
  %12 = load i32, ptr %11, align 4
  %13 = icmp eq i32 %12, 0
  br i1 %13, label %14, label %20

14:                                               ; preds = %10, %3
  %15 = load i64, ptr %6, align 8
  %16 = icmp ugt i64 %15, 0
  br i1 %16, label %17, label %19

17:                                               ; preds = %14
  %18 = load ptr, ptr %5, align 8
  store i32 0, ptr %18, align 4
  br label %19

19:                                               ; preds = %17, %14
  br label %42

20:                                               ; preds = %10
  %21 = load ptr, ptr %4, align 8
  %22 = call noundef zeroext i1 @_Z10IsFullPathPKw(ptr noundef %21)
  br i1 %22, label %23, label %25

23:                                               ; preds = %20
  %24 = load ptr, ptr %5, align 8
  store i32 0, ptr %24, align 4
  br label %38

25:                                               ; preds = %20
  %26 = getelementptr inbounds [2048 x i8], ptr %7, i64 0, i64 0
  %27 = call ptr @getcwd(ptr noundef %26, i64 noundef 2048) #7
  %28 = icmp eq ptr %27, null
  br i1 %28, label %29, label %31

29:                                               ; preds = %25
  %30 = getelementptr inbounds [2048 x i8], ptr %7, i64 0, i64 0
  store i8 0, ptr %30, align 16
  br label %31

31:                                               ; preds = %29, %25
  %32 = getelementptr inbounds [2048 x i8], ptr %7, i64 0, i64 0
  %33 = load ptr, ptr %5, align 8
  %34 = load i64, ptr %6, align 8
  %35 = call noundef zeroext i1 @_Z10CharToWidePKcPwm(ptr noundef %32, ptr noundef %33, i64 noundef %34)
  %36 = load ptr, ptr %5, align 8
  %37 = load i64, ptr %6, align 8
  call void @_Z11AddEndSlashPwm(ptr noundef %36, i64 noundef %37)
  br label %38

38:                                               ; preds = %31, %23
  %39 = load ptr, ptr %5, align 8
  %40 = load ptr, ptr %4, align 8
  %41 = load i64, ptr %6, align 8
  call void @_Z8wcsncatzPwPKwm(ptr noundef %39, ptr noundef %40, i64 noundef %41)
  br label %42

42:                                               ; preds = %38, %19
  ret void
}